target datalayout = "e-m:e-p270:32:32-p271:32:32-p272:64:64-i64:64-i128:128-f80:128-n8:16:32:64-S128"
target triple = "x86_64-pc-linux-gnu"

%struct.Abc_Ntk_t_ = type { i32, i32, ptr, ptr, ptr, ptr, ptr, ptr, ptr, ptr, ptr, ptr, ptr, [11 x i32], i32, i32, i32, i32, ptr, i32, ptr, ptr, i32, i32, i32, double, i32, %struct.Vec_Int_t_, ptr, ptr, ptr, ptr, ptr, float, i32, ptr, ptr, ptr, ptr, ptr, ptr, ptr, ptr, ptr, ptr, ptr, ptr, ptr, ptr, ptr, ptr, ptr, ptr, ptr, ptr, ptr, ptr }
%struct.Vec_Int_t_ = type { i32, i32, ptr }
%struct.Abc_Obj_t_ = type { ptr, ptr, i32, i32, %struct.Vec_Int_t_, %struct.Vec_Int_t_, %union.anon, %union.anon.0 }
%union.anon = type { ptr }
%union.anon.0 = type { ptr }
%struct.Vec_Ptr_t_ = type { i32, i32, ptr }

; Function Attrs: inlinehint nounwind uwtable
define internal ptr @Abc_ObjFanin(ptr noundef %0, i32 noundef %1) #3 {
  %3 = alloca ptr, align 8
  %4 = alloca i32, align 4
  store ptr %0, ptr %3, align 8, !tbaa !27
  store i32 %1, ptr %4, align 4, !tbaa !8
  %5 = load ptr, ptr %3, align 8, !tbaa !27
  %6 = getelementptr inbounds nuw %struct.Abc_Obj_t_, ptr %5, i32 0, i32 0
  %7 = load ptr, ptr %6, align 8, !tbaa !63
  %8 = getelementptr inbounds nuw %struct.Abc_Ntk_t_, ptr %7, i32 0, i32 5
  %9 = load ptr, ptr %8, align 8, !tbaa !26
  %10 = getelementptr inbounds nuw %struct.Vec_Ptr_t_, ptr %9, i32 0, i32 2
  %11 = load ptr, ptr %10, align 8, !tbaa !61
  %12 = load ptr, ptr %3, align 8, !tbaa !27
  %13 = getelementptr inbounds nuw %struct.Abc_Obj_t_, ptr %12, i32 0, i32 4
  %14 = getelementptr inbounds nuw %struct.Vec_Int_t_, ptr %13, i32 0, i32 2
  %15 = load ptr, ptr %14, align 8, !tbaa !64
  %16 = load i32, ptr %4, align 4, !tbaa !8
  %17 = sext i32 %16 to i64
  %18 = getelementptr inbounds i32, ptr %15, i64 %17
  %19 = load i32, ptr %18, align 4, !tbaa !8
  %20 = sext i32 %19 to i64
  %21 = getelementptr inbounds ptr, ptr %11, i64 %20
  %22 = load ptr, ptr %21, align 8, !tbaa !60
  ret ptr %22
}

; Function Attrs: inlinehint nounwind uwtable
define internal void @Vec_PtrFree(ptr noundef %0) #3 {
  %2 = alloca ptr, align 8
  store ptr %0, ptr %2, align 8, !tbaa !44
  %3 = load ptr, ptr %2, align 8, !tbaa !44
  %4 = getelementptr inbounds nuw %struct.Vec_Ptr_t_, ptr %3, i32 0, i32 2
  %5 = load ptr, ptr %4, align 8, !tbaa !61
  %6 = icmp ne ptr %5, null
  br i1 %6, label %7, label %13

7:                                                ; preds = %1
  %8 = load ptr, ptr %2, align 8, !tbaa !44
  %9 = getelementptr inbounds nuw %struct.Vec_Ptr_t_, ptr %8, i32 0, i32 2
  %10 = load ptr, ptr %9, align 8, !tbaa !61
  call void @free(ptr noundef %10) #7
  %11 = load ptr, ptr %2, align 8, !tbaa !44
  %12 = getelementptr inbounds nuw %struct.Vec_Ptr_t_, ptr %11, i32 0, i32 2
  store ptr null, ptr %12, align 8, !tbaa !61
  br label %14

13:                                               ; preds = %1
  br label %14

14:                                               ; preds = %13, %7
  %15 = load ptr, ptr %2, align 8, !tbaa !44
  %16 = icmp ne ptr %15, null
  br i1 %16, label %17, label %19

17:                                               ; preds = %14
  %18 = load ptr, ptr %2, align 8, !tbaa !44
  call void @free(ptr noundef %18) #7
  store ptr null, ptr %2, align 8, !tbaa !44
  br label %20

19:                                               ; preds = %14
  br label %20

20:                                               ; preds = %19, %17
  ret void
}

; Function Attrs: nounwind uwtable
define internal ptr @Abc_NtkMultiDeriveBdd(ptr noundef %0, ptr noundef %1, ptr noundef %2) #0 {
  %4 = alloca ptr, align 8
  %5 = alloca ptr, align 8
  %6 = alloca ptr, align 8
  %7 = alloca ptr, align 8
  %8 = alloca ptr, align 8
  %9 = alloca i32, align 4
  store ptr %0, ptr %4, align 8, !tbaa !69
  store ptr %1, ptr %5, align 8, !tbaa !27
  store ptr %2, ptr %6, align 8, !tbaa !44
  call void @llvm.lifetime.start.p0(i64 8, ptr %7) #7
  call void @llvm.lifetime.start.p0(i64 8, ptr %8) #7
  call void @llvm.lifetime.start.p0(i64 4, ptr %9) #7
  store i32 0, ptr %9, align 4, !tbaa !8
  br label %10

10:                                               ; preds = %37, %3
  %11 = load i32, ptr %9, align 4, !tbaa !8
  %12 = load ptr, ptr %6, align 8, !tbaa !44
  %13 = getelementptr inbounds nuw %struct.Vec_Ptr_t_, ptr %12, i32 0, i32 1
  %14 = load i32, ptr %13, align 4, !tbaa !58
  %15 = icmp slt i32 %11, %14
  br i1 %15, label %16, label %40

16:                                               ; preds = %10
  %17 = load ptr, ptr %6, align 8, !tbaa !44
  %18 = getelementptr inbounds nuw %struct.Vec_Ptr_t_, ptr %17, i32 0, i32 2
  %19 = load ptr, ptr %18, align 8, !tbaa !61
  %20 = load i32, ptr %9, align 4, !tbaa !8
  %21 = sext i32 %20 to i64
  %22 = getelementptr inbounds ptr, ptr %19, i64 %21
  %23 = load ptr, ptr %22, align 8, !tbaa !60
  store ptr %23, ptr %7, align 8, !tbaa !27
  %24 = load ptr, ptr %4, align 8, !tbaa !69
  %25 = load i32, ptr %9, align 4, !tbaa !8
  %26 = call ptr @Cudd_bddIthVar(ptr noundef %24, i32 noundef %25)
  %27 = load ptr, ptr %7, align 8, !tbaa !27
  %28 = getelementptr inbounds nuw %struct.Abc_Obj_t_, ptr %27, i32 0, i32 6
  store ptr %26, ptr %28, align 8, !tbaa !51
  %29 = load ptr, ptr %7, align 8, !tbaa !27
  %30 = getelementptr inbounds nuw %struct.Abc_Obj_t_, ptr %29, i32 0, i32 6
  %31 = load ptr, ptr %30, align 8, !tbaa !51
  call void @Cudd_Ref(ptr noundef %31)
  %32 = load ptr, ptr %7, align 8, !tbaa !27
  %33 = getelementptr inbounds nuw %struct.Abc_Obj_t_, ptr %32, i32 0, i32 3
  %34 = load i32, ptr %33, align 4
  %35 = and i32 %34, -65
  %36 = or i32 %35, 64
  store i32 %36, ptr %33, align 4
  br label %37

37:                                               ; preds = %16
  %38 = load i32, ptr %9, align 4, !tbaa !8
  %39 = add nsw i32 %38, 1
  store i32 %39, ptr %9, align 4, !tbaa !8
  br label %10, !llvm.loop !71

40:                                               ; preds = %10
  %41 = load ptr, ptr %4, align 8, !tbaa !69
  %42 = load ptr, ptr %5, align 8, !tbaa !27
  %43 = load ptr, ptr %6, align 8, !tbaa !44
  %44 = call ptr @Abc_NtkMultiDeriveBdd_rec(ptr noundef %41, ptr noundef %42, ptr noundef %43)
  store ptr %44, ptr %8, align 8, !tbaa !72
  %45 = load ptr, ptr %8, align 8, !tbaa !72
  call void @Cudd_Ref(ptr noundef %45)
  store i32 0, ptr %9, align 4, !tbaa !8
  br label %46

46:                                               ; preds = %69, %40
  %47 = load i32, ptr %9, align 4, !tbaa !8
  %48 = load ptr, ptr %6, align 8, !tbaa !44
  %49 = getelementptr inbounds nuw %struct.Vec_Ptr_t_, ptr %48, i32 0, i32 1
  %50 = load i32, ptr %49, align 4, !tbaa !58
  %51 = icmp slt i32 %47, %50
  br i1 %51, label %52, label %72

52:                                               ; preds = %46
  %53 = load ptr, ptr %6, align 8, !tbaa !44
  %54 = getelementptr inbounds nuw %struct.Vec_Ptr_t_, ptr %53, i32 0, i32 2
  %55 = load ptr, ptr %54, align 8, !tbaa !61
  %56 = load i32, ptr %9, align 4, !tbaa !8
  %57 = sext i32 %56 to i64
  %58 = getelementptr inbounds ptr, ptr %55, i64 %57
  %59 = load ptr, ptr %58, align 8, !tbaa !60
  store ptr %59, ptr %7, align 8, !tbaa !27
  %60 = load ptr, ptr %4, align 8, !tbaa !69
  %61 = load ptr, ptr %7, align 8, !tbaa !27
  %62 = getelementptr inbounds nuw %struct.Abc_Obj_t_, ptr %61, i32 0, i32 6
  %63 = load ptr, ptr %62, align 8, !tbaa !51
  call void @Cudd_RecursiveDeref(ptr noundef %60, ptr noundef %63)
  %64 = load ptr, ptr %7, align 8, !tbaa !27
  %65 = getelementptr inbounds nuw %struct.Abc_Obj_t_, ptr %64, i32 0, i32 3
  %66 = load i32, ptr %65, align 4
  %67 = and i32 %66, -65
  %68 = or i32 %67, 0
  store i32 %68, ptr %65, align 4
  br label %69

69:                                               ; preds = %52
  %70 = load i32, ptr %9, align 4, !tbaa !8
  %71 = add nsw i32 %70, 1
  store i32 %71, ptr %9, align 4, !tbaa !8
  br label %46, !llvm.loop !74

72:                                               ; preds = %46
  %73 = load ptr, ptr %8, align 8, !tbaa !72
  call void @Cudd_Deref(ptr noundef %73)
  %74 = load ptr, ptr %8, align 8, !tbaa !72
  call void @llvm.lifetime.end.p0(i64 4, ptr %9) #7
  call void @llvm.lifetime.end.p0(i64 8, ptr %8) #7
  call void @llvm.lifetime.end.p0(i64 8, ptr %7) #7
  ret ptr %74
}

; Function Attrs: inlinehint nounwind uwtable
define internal ptr @Abc_NtkCreateNode(ptr noundef %0) #3 {
  %2 = alloca ptr, align 8
  store ptr %0, ptr %2, align 8, !tbaa !3
  %3 = load ptr, ptr %2, align 8, !tbaa !3
  %4 = call ptr @Abc_NtkCreateObj(ptr noundef %3, i32 noundef 7)
  ret ptr %4
}

; Function Attrs: nounwind uwtable
define internal void @Abc_NtkMultiCone(ptr noundef %0, ptr noundef %1) #0 {
  %3 = alloca ptr, align 8
  %4 = alloca ptr, align 8
  store ptr %0, ptr %3, align 8, !tbaa !27
  store ptr %1, ptr %4, align 8, !tbaa !44
  %5 = load ptr, ptr %4, align 8, !tbaa !44
  %6 = getelementptr inbounds nuw %struct.Vec_Ptr_t_, ptr %5, i32 0, i32 1
  store i32 0, ptr %6, align 4, !tbaa !58
  %7 = load ptr, ptr %3, align 8, !tbaa !27
  %8 = call ptr @Abc_ObjFanin(ptr noundef %7, i32 noundef 0)
  %9 = load ptr, ptr %4, align 8, !tbaa !44
  call void @Abc_NtkMultiCone_rec(ptr noundef %8, ptr noundef %9)
  %10 = load ptr, ptr %3, align 8, !tbaa !27
  %11 = call ptr @Abc_ObjFanin(ptr noundef %10, i32 noundef 1)
  %12 = load ptr, ptr %4, align 8, !tbaa !44
  call void @Abc_NtkMultiCone_rec(ptr noundef %11, ptr noundef %12)
  ret void
}

; Function Attrs: inlinehint nounwind uwtable
define internal ptr @Vec_PtrAlloc(i32 noundef %0) #3 {
  %2 = alloca i32, align 4
  %3 = alloca ptr, align 8
  store i32 %0, ptr %2, align 4, !tbaa !8
  call void @llvm.lifetime.start.p0(i64 8, ptr %3) #7
  %4 = call noalias ptr @malloc(i64 noundef 16) #8
  store ptr %4, ptr %3, align 8, !tbaa !44
  %5 = load i32, ptr %2, align 4, !tbaa !8
  %6 = icmp sgt i32 %5, 0
  br i1 %6, label %7, label %11

7:                                                ; preds = %1
  %8 = load i32, ptr %2, align 4, !tbaa !8
  %9 = icmp slt i32 %8, 8
  br i1 %9, label %10, label %11

10:                                               ; preds = %7
  store i32 8, ptr %2, align 4, !tbaa !8
  br label %11

11:                                               ; preds = %10, %7, %1
  %12 = load ptr, ptr %3, align 8, !tbaa !44
  %13 = getelementptr inbounds nuw %struct.Vec_Ptr_t_, ptr %12, i32 0, i32 1
  store i32 0, ptr %13, align 4, !tbaa !58
  %14 = load i32, ptr %2, align 4, !tbaa !8
  %15 = load ptr, ptr %3, align 8, !tbaa !44
  %16 = getelementptr inbounds nuw %struct.Vec_Ptr_t_, ptr %15, i32 0, i32 0
  store i32 %14, ptr %16, align 8, !tbaa !68
  %17 = load ptr, ptr %3, align 8, !tbaa !44
  %18 = getelementptr inbounds nuw %struct.Vec_Ptr_t_, ptr %17, i32 0, i32 0
  %19 = load i32, ptr %18, align 8, !tbaa !68
  %20 = icmp ne i32 %19, 0
  br i1 %20, label %21, label %28

21:                                               ; preds = %11
  %22 = load ptr, ptr %3, align 8, !tbaa !44
  %23 = getelementptr inbounds nuw %struct.Vec_Ptr_t_, ptr %22, i32 0, i32 0
  %24 = load i32, ptr %23, align 8, !tbaa !68
  %25 = sext i32 %24 to i64
  %26 = mul i64 8, %25
  %27 = call noalias ptr @malloc(i64 noundef %26) #8
  br label %29

28:                                               ; preds = %11
  br label %29

29:                                               ; preds = %28, %21
  %30 = phi ptr [ %27, %21 ], [ null, %28 ]
  %31 = load ptr, ptr %3, align 8, !tbaa !44
  %32 = getelementptr inbounds nuw %struct.Vec_Ptr_t_, ptr %31, i32 0, i32 2
  store ptr %30, ptr %32, align 8, !tbaa !61
  %33 = load ptr, ptr %3, align 8, !tbaa !44
  call void @llvm.lifetime.end.p0(i64 8, ptr %3) #7
  ret ptr %33
}

; Function Attrs: nounwind uwtable
define internal ptr @Abc_NtkMulti_rec(ptr noundef %0, ptr noundef %1) #0 {
  %3 = alloca ptr, align 8
  %4 = alloca ptr, align 8
  %5 = alloca ptr, align 8
  %6 = alloca ptr, align 8
  %7 = alloca ptr, align 8
  %8 = alloca i32, align 4
  %9 = alloca i32, align 4
  store ptr %0, ptr %4, align 8, !tbaa !3
  store ptr %1, ptr %5, align 8, !tbaa !27
  call void @llvm.lifetime.start.p0(i64 8, ptr %6) #7
  call void @llvm.lifetime.start.p0(i64 8, ptr %7) #7
  call void @llvm.lifetime.start.p0(i64 4, ptr %8) #7
  %10 = load ptr, ptr %5, align 8, !tbaa !27
  %11 = getelementptr inbounds nuw %struct.Abc_Obj_t_, ptr %10, i32 0, i32 7
  %12 = load ptr, ptr %11, align 8, !tbaa !51
  %13 = icmp ne ptr %12, null
  br i1 %13, label %14, label %18

14:                                               ; preds = %2
  %15 = load ptr, ptr %5, align 8, !tbaa !27
  %16 = getelementptr inbounds nuw %struct.Abc_Obj_t_, ptr %15, i32 0, i32 7
  %17 = load ptr, ptr %16, align 8, !tbaa !51
  store ptr %17, ptr %3, align 8
  store i32 1, ptr %9, align 4
  br label %63

18:                                               ; preds = %2
  %19 = call ptr @Vec_PtrAlloc(i32 noundef 10)
  store ptr %19, ptr %6, align 8, !tbaa !44
  %20 = load ptr, ptr %5, align 8, !tbaa !27
  %21 = load ptr, ptr %6, align 8, !tbaa !44
  call void @Abc_NtkMultiCone(ptr noundef %20, ptr noundef %21)
  %22 = load ptr, ptr %4, align 8, !tbaa !3
  %23 = call ptr @Abc_NtkCreateNode(ptr noundef %22)
  store ptr %23, ptr %7, align 8, !tbaa !27
  store i32 0, ptr %8, align 4, !tbaa !8
  br label %24

24:                                               ; preds = %41, %18
  %25 = load i32, ptr %8, align 4, !tbaa !8
  %26 = load ptr, ptr %6, align 8, !tbaa !44
  %27 = getelementptr inbounds nuw %struct.Vec_Ptr_t_, ptr %26, i32 0, i32 1
  %28 = load i32, ptr %27, align 4, !tbaa !58
  %29 = icmp slt i32 %25, %28
  br i1 %29, label %30, label %44

30:                                               ; preds = %24
  %31 = load ptr, ptr %7, align 8, !tbaa !27
  %32 = load ptr, ptr %4, align 8, !tbaa !3
  %33 = load ptr, ptr %6, align 8, !tbaa !44
  %34 = getelementptr inbounds nuw %struct.Vec_Ptr_t_, ptr %33, i32 0, i32 2
  %35 = load ptr, ptr %34, align 8, !tbaa !61
  %36 = load i32, ptr %8, align 4, !tbaa !8
  %37 = sext i32 %36 to i64
  %38 = getelementptr inbounds ptr, ptr %35, i64 %37
  %39 = load ptr, ptr %38, align 8, !tbaa !60
  %40 = call ptr @Abc_NtkMulti_rec(ptr noundef %32, ptr noundef %39)
  call void @Abc_ObjAddFanin(ptr noundef %31, ptr noundef %40)
  br label %41

41:                                               ; preds = %30
  %42 = load i32, ptr %8, align 4, !tbaa !8
  %43 = add nsw i32 %42, 1
  store i32 %43, ptr %8, align 4, !tbaa !8
  br label %24, !llvm.loop !67

44:                                               ; preds = %24
  %45 = load ptr, ptr %4, align 8, !tbaa !3
  %46 = getelementptr inbounds nuw %struct.Abc_Ntk_t_, ptr %45, i32 0, i32 30
  %47 = load ptr, ptr %46, align 8, !tbaa !50
  %48 = load ptr, ptr %5, align 8, !tbaa !27
  %49 = load ptr, ptr %6, align 8, !tbaa !44
  %50 = call ptr @Abc_NtkMultiDeriveBdd(ptr noundef %47, ptr noundef %48, ptr noundef %49)
  %51 = load ptr, ptr %7, align 8, !tbaa !27
  %52 = getelementptr inbounds nuw %struct.Abc_Obj_t_, ptr %51, i32 0, i32 6
  store ptr %50, ptr %52, align 8, !tbaa !51
  %53 = load ptr, ptr %7, align 8, !tbaa !27
  %54 = getelementptr inbounds nuw %struct.Abc_Obj_t_, ptr %53, i32 0, i32 6
  %55 = load ptr, ptr %54, align 8, !tbaa !51
  call void @Cudd_Ref(ptr noundef %55)
  %56 = load ptr, ptr %6, align 8, !tbaa !44
  call void @Vec_PtrFree(ptr noundef %56)
  %57 = load ptr, ptr %7, align 8, !tbaa !27
  %58 = load ptr, ptr %5, align 8, !tbaa !27
  %59 = getelementptr inbounds nuw %struct.Abc_Obj_t_, ptr %58, i32 0, i32 7
  store ptr %57, ptr %59, align 8, !tbaa !51
  %60 = load ptr, ptr %5, align 8, !tbaa !27
  %61 = getelementptr inbounds nuw %struct.Abc_Obj_t_, ptr %60, i32 0, i32 7
  %62 = load ptr, ptr %61, align 8, !tbaa !51
  store ptr %62, ptr %3, align 8
  store i32 1, ptr %9, align 4
  br label %63

63:                                               ; preds = %44, %14
  call void @llvm.lifetime.end.p0(i64 4, ptr %8) #7
  call void @llvm.lifetime.end.p0(i64 8, ptr %7) #7
  call void @llvm.lifetime.end.p0(i64 8, ptr %6) #7
  %64 = load ptr, ptr %3, align 8
  ret ptr %64
}