; Function Attrs: nounwind uwtable
define internal fastcc ptr @Abc_NtkMulti_rec(ptr noundef %0, ptr noundef %1) unnamed_addr #0 {
  %3 = getelementptr inbounds nuw i8, ptr %1, i64 64
  %4 = load ptr, ptr %3, align 8, !tbaa !45
  %.not = icmp eq ptr %4, null
  br i1 %.not, label %5, label %64

5:                                                ; preds = %2
  %6 = tail call noalias dereferenceable_or_null(16) ptr @malloc(i64 noundef 16) #7
  %7 = getelementptr inbounds nuw i8, ptr %6, i64 4
  store i32 10, ptr %6, align 8, !tbaa !51
  %8 = tail call noalias dereferenceable_or_null(80) ptr @malloc(i64 noundef 80) #7
  %9 = getelementptr inbounds nuw i8, ptr %6, i64 8
  store ptr %8, ptr %9, align 8, !tbaa !27
  store i32 0, ptr %7, align 4, !tbaa !24
  %.val6.i = load ptr, ptr %1, align 8, !tbaa !32
  %10 = getelementptr i8, ptr %1, i64 32
  %.val7.i = load ptr, ptr %10, align 8, !tbaa !33
  %11 = getelementptr i8, ptr %.val6.i, i64 32
  %.val6.val.i = load ptr, ptr %11, align 8, !tbaa !3
  %12 = getelementptr i8, ptr %.val6.val.i, i64 8
  %.val6.val.val.i = load ptr, ptr %12, align 8, !tbaa !27
  %13 = load i32, ptr %.val7.i, align 4, !tbaa !34
  %14 = sext i32 %13 to i64
  %15 = getelementptr inbounds ptr, ptr %.val6.val.val.i, i64 %14
  %16 = load ptr, ptr %15, align 8, !tbaa !28
  tail call void @Abc_NtkMultiCone_rec(ptr noundef %16, ptr noundef nonnull %6)
  %.val.i = load ptr, ptr %1, align 8, !tbaa !32
  %.val5.i = load ptr, ptr %10, align 8, !tbaa !33
  %17 = getelementptr i8, ptr %.val.i, i64 32
  %.val.val.i = load ptr, ptr %17, align 8, !tbaa !3
  %18 = getelementptr i8, ptr %.val.val.i, i64 8
  %.val.val.val.i = load ptr, ptr %18, align 8, !tbaa !27
  %19 = getelementptr inbounds nuw i8, ptr %.val5.i, i64 4
  %20 = load i32, ptr %19, align 4, !tbaa !34
  %21 = sext i32 %20 to i64
  %22 = getelementptr inbounds ptr, ptr %.val.val.val.i, i64 %21
  %23 = load ptr, ptr %22, align 8, !tbaa !28
  tail call void @Abc_NtkMultiCone_rec(ptr noundef %23, ptr noundef nonnull %6)
  %24 = tail call ptr @Abc_NtkCreateObj(ptr noundef %0, i32 noundef 7) #6
  %25 = load i32, ptr %7, align 4, !tbaa !24
  %26 = icmp sgt i32 %25, 0
  br i1 %26, label %.lr.ph.preheader, label %._crit_edge.thread

._crit_edge.thread:                               ; preds = %5
  %27 = getelementptr inbounds nuw i8, ptr %0, i64 256
  %28 = load ptr, ptr %27, align 8, !tbaa !44
  br label %._crit_edge.i

.lr.ph.preheader:                                 ; preds = %5
  %.pre = load ptr, ptr %9, align 8, !tbaa !27
  %29 = zext nneg i32 %25 to i64
  br label %.lr.ph

.lr.ph:                                           ; preds = %.lr.ph.preheader, %.lr.ph
  %indvars.iv = phi i64 [ 0, %.lr.ph.preheader ], [ %indvars.iv.next, %.lr.ph ]
  %30 = getelementptr inbounds nuw ptr, ptr %.pre, i64 %indvars.iv
  %31 = load ptr, ptr %30, align 8, !tbaa !28
  %32 = tail call fastcc ptr @Abc_NtkMulti_rec(ptr noundef %0, ptr noundef %31)
  tail call void @Abc_ObjAddFanin(ptr noundef %24, ptr noundef %32) #6
  %indvars.iv.next = add nuw nsw i64 %indvars.iv, 1
  %33 = icmp samesign ult i64 %indvars.iv.next, %29
  br i1 %33, label %.lr.ph, label %._crit_edge, !llvm.loop !57

._crit_edge:                                      ; preds = %.lr.ph
  %34 = getelementptr inbounds nuw i8, ptr %0, i64 256
  %35 = load ptr, ptr %34, align 8, !tbaa !44
  %.pre26 = load ptr, ptr %9, align 8, !tbaa !27
  %36 = zext nneg i32 %25 to i64
  br label %.lr.ph.i

.lr.ph.i:                                         ; preds = %._crit_edge, %.lr.ph.i
  %indvars.iv.i = phi i64 [ %indvars.iv.next.i, %.lr.ph.i ], [ 0, %._crit_edge ]
  %37 = getelementptr inbounds nuw ptr, ptr %.pre26, i64 %indvars.iv.i
  %38 = load ptr, ptr %37, align 8, !tbaa !28
  %39 = trunc nuw nsw i64 %indvars.iv.i to i32
  %40 = tail call ptr @Cudd_bddIthVar(ptr noundef %35, i32 noundef %39) #6
  %41 = getelementptr inbounds nuw i8, ptr %38, i64 56
  store ptr %40, ptr %41, align 8, !tbaa !45
  tail call void @Cudd_Ref(ptr noundef %40) #6
  %42 = getelementptr inbounds nuw i8, ptr %38, i64 20
  %43 = load i32, ptr %42, align 4
  %44 = or i32 %43, 64
  store i32 %44, ptr %42, align 4
  %indvars.iv.next.i = add nuw nsw i64 %indvars.iv.i, 1
  %45 = icmp samesign ult i64 %indvars.iv.next.i, %36
  br i1 %45, label %.lr.ph.i, label %._crit_edge.i, !llvm.loop !58

._crit_edge.i:                                    ; preds = %.lr.ph.i, %._crit_edge.thread
  %46 = phi ptr [ %28, %._crit_edge.thread ], [ %35, %.lr.ph.i ]
  %47 = tail call fastcc ptr @Abc_NtkMultiDeriveBdd_rec(ptr noundef %46, ptr noundef nonnull %1, ptr noundef nonnull %6)
  tail call void @Cudd_Ref(ptr noundef %47) #6
  %48 = load i32, ptr %7, align 4, !tbaa !24
  %49 = icmp sgt i32 %48, 0
  br i1 %49, label %.lr.ph26.i, label %Abc_NtkMultiDeriveBdd.exit

.lr.ph26.i:                                       ; preds = %._crit_edge.i, %.lr.ph26.i
  %indvars.iv29.i = phi i64 [ %indvars.iv.next30.i, %.lr.ph26.i ], [ 0, %._crit_edge.i ]
  %50 = load ptr, ptr %9, align 8, !tbaa !27
  %51 = getelementptr inbounds nuw ptr, ptr %50, i64 %indvars.iv29.i
  %52 = load ptr, ptr %51, align 8, !tbaa !28
  %53 = getelementptr inbounds nuw i8, ptr %52, i64 56
  %54 = load ptr, ptr %53, align 8, !tbaa !45
  tail call void @Cudd_RecursiveDeref(ptr noundef %46, ptr noundef %54) #6
  %55 = getelementptr inbounds nuw i8, ptr %52, i64 20
  %56 = load i32, ptr %55, align 4
  %57 = and i32 %56, -65
  store i32 %57, ptr %55, align 4
  %indvars.iv.next30.i = add nuw nsw i64 %indvars.iv29.i, 1
  %58 = load i32, ptr %7, align 4, !tbaa !24
  %59 = sext i32 %58 to i64
  %60 = icmp slt i64 %indvars.iv.next30.i, %59
  br i1 %60, label %.lr.ph26.i, label %Abc_NtkMultiDeriveBdd.exit, !llvm.loop !59

Abc_NtkMultiDeriveBdd.exit:                       ; preds = %.lr.ph26.i, %._crit_edge.i
  tail call void @Cudd_Deref(ptr noundef %47) #6
  %61 = getelementptr inbounds nuw i8, ptr %24, i64 56
  store ptr %47, ptr %61, align 8, !tbaa !45
  tail call void @Cudd_Ref(ptr noundef %47) #6
  %62 = load ptr, ptr %9, align 8, !tbaa !27
  %.not.i = icmp eq ptr %62, null
  br i1 %.not.i, label %Vec_PtrFree.exit, label %63

63:                                               ; preds = %Abc_NtkMultiDeriveBdd.exit
  tail call void @free(ptr noundef nonnull %62) #6
  br label %Vec_PtrFree.exit

Vec_PtrFree.exit:                                 ; preds = %Abc_NtkMultiDeriveBdd.exit, %63
  tail call void @free(ptr noundef nonnull %6) #6
  store ptr %24, ptr %3, align 8, !tbaa !45
  br label %64

64:                                               ; preds = %2, %Vec_PtrFree.exit
  %.021 = phi ptr [ %24, %Vec_PtrFree.exit ], [ %4, %2 ]
  ret ptr %.021
}